target datalayout = "e-m:e-p270:32:32-p271:32:32-p272:64:64-i64:64-i128:128-f80:128-n8:16:32:64-S128"
target triple = "x86_64-unknown-linux-gnu"

%struct.HashMap = type { ptr, i32, i32 }
%struct.Scope = type { ptr, %struct.HashMap, %struct.HashMap }
%struct.Node = type { i32, ptr, ptr, ptr, ptr, ptr, ptr, ptr, ptr, ptr, ptr, ptr, ptr, ptr, ptr, ptr, ptr, i8, ptr, ptr, ptr, ptr, ptr, ptr, i64, i64, ptr, ptr, ptr, ptr, ptr, ptr, ptr, i64, x86_fp80 }
%struct.Token = type { i32, ptr, i64, x86_fp80, ptr, i32, ptr, ptr, ptr, ptr, i32, i32, i8, i8, ptr, ptr }
%struct.VarAttr = type { i8, i8, i8, i8, i8, i32 }
%struct.Type = type { i32, i32, i32, i8, i8, ptr, ptr, ptr, ptr, i32, ptr, ptr, ptr, i8, i8, ptr, ptr, i8, ptr }
%struct.VarScope = type { ptr, ptr, ptr, i32 }

@.str.3 = private unnamed_addr constant [2 x i8] c":\00", align 1
@is_typename.map = internal global %struct.HashMap zeroinitializer, align 8
@scope = internal global ptr @.compoundliteral, align 8
@.str.69 = private unnamed_addr constant [2 x i8] c"}\00", align 1
@.str.99 = private unnamed_addr constant [2 x i8] c";\00", align 1

; Function Attrs: nounwind uwtable
define internal ptr @find_var(ptr noundef %tok) #0 {
entry:
  %retval = alloca ptr, align 8
  %tok.addr = alloca ptr, align 8
  %sc = alloca ptr, align 8
  %sc2 = alloca ptr, align 8
  store ptr %tok, ptr %tok.addr, align 8
  %0 = load ptr, ptr @scope, align 8
  store ptr %0, ptr %sc, align 8
  br label %for.cond

for.cond:                                         ; preds = %for.inc, %entry
  %1 = load ptr, ptr %sc, align 8
  %tobool = icmp ne ptr %1, null
  br i1 %tobool, label %for.body, label %for.end

for.body:                                         ; preds = %for.cond
  %2 = load ptr, ptr %sc, align 8
  %vars = getelementptr inbounds %struct.Scope, ptr %2, i32 0, i32 1
  %3 = load ptr, ptr %tok.addr, align 8
  %loc = getelementptr inbounds %struct.Token, ptr %3, i32 0, i32 4
  %4 = load ptr, ptr %loc, align 16
  %5 = load ptr, ptr %tok.addr, align 8
  %len = getelementptr inbounds %struct.Token, ptr %5, i32 0, i32 5
  %6 = load i32, ptr %len, align 8
  %call = call ptr @hashmap_get2(ptr noundef %vars, ptr noundef %4, i32 noundef %6)
  store ptr %call, ptr %sc2, align 8
  %7 = load ptr, ptr %sc2, align 8
  %tobool1 = icmp ne ptr %7, null
  br i1 %tobool1, label %if.then, label %if.end

if.then:                                          ; preds = %for.body
  %8 = load ptr, ptr %sc2, align 8
  store ptr %8, ptr %retval, align 8
  br label %return

if.end:                                           ; preds = %for.body
  br label %for.inc

for.inc:                                          ; preds = %if.end
  %9 = load ptr, ptr %sc, align 8
  %next = getelementptr inbounds %struct.Scope, ptr %9, i32 0, i32 0
  %10 = load ptr, ptr %next, align 8
  store ptr %10, ptr %sc, align 8
  br label %for.cond, !llvm.loop !22

for.end:                                          ; preds = %for.cond
  store ptr null, ptr %retval, align 8
  br label %return

return:                                           ; preds = %for.end, %if.then
  %11 = load ptr, ptr %retval, align 8
  ret ptr %11
}

; Function Attrs: nounwind uwtable
define internal ptr @find_typedef(ptr noundef %tok) #0 {
entry:
  %retval = alloca ptr, align 8
  %tok.addr = alloca ptr, align 8
  %sc = alloca ptr, align 8
  store ptr %tok, ptr %tok.addr, align 8
  %0 = load ptr, ptr %tok.addr, align 8
  %kind = getelementptr inbounds %struct.Token, ptr %0, i32 0, i32 0
  %1 = load i32, ptr %kind, align 16
  %cmp = icmp eq i32 %1, 0
  br i1 %cmp, label %if.then, label %if.end2

if.then:                                          ; preds = %entry
  %2 = load ptr, ptr %tok.addr, align 8
  %call = call ptr @find_var(ptr noundef %2)
  store ptr %call, ptr %sc, align 8
  %3 = load ptr, ptr %sc, align 8
  %tobool = icmp ne ptr %3, null
  br i1 %tobool, label %if.then1, label %if.end

if.then1:                                         ; preds = %if.then
  %4 = load ptr, ptr %sc, align 8
  %type_def = getelementptr inbounds %struct.VarScope, ptr %4, i32 0, i32 1
  %5 = load ptr, ptr %type_def, align 8
  store ptr %5, ptr %retval, align 8
  br label %return

if.end:                                           ; preds = %if.then
  br label %if.end2

if.end2:                                          ; preds = %if.end, %entry
  store ptr null, ptr %retval, align 8
  br label %return

return:                                           ; preds = %if.end2, %if.then1
  %6 = load ptr, ptr %retval, align 8
  ret ptr %6
}

; Function Attrs: nounwind uwtable
define internal void @leave_scope() #0 {
entry:
  %0 = load ptr, ptr @scope, align 8
  %next = getelementptr inbounds %struct.Scope, ptr %0, i32 0, i32 0
  %1 = load ptr, ptr %next, align 8
  store ptr %1, ptr @scope, align 8
  ret void
}

; Function Attrs: nounwind uwtable
define internal zeroext i1 @is_function(ptr noundef %tok) #0 {
entry:
  %retval = alloca i1, align 1
  %tok.addr = alloca ptr, align 8
  %dummy = alloca %struct.Type, align 8
  %ty = alloca ptr, align 8
  store ptr %tok, ptr %tok.addr, align 8
  %0 = load ptr, ptr %tok.addr, align 8
  %call = call zeroext i1 @equal(ptr noundef %0, ptr noundef @.str.99)
  br i1 %call, label %if.then, label %if.end

if.then:                                          ; preds = %entry
  store i1 false, ptr %retval, align 1
  br label %return

if.end:                                           ; preds = %entry
  call void @llvm.memset.p0.i64(ptr align 8 %dummy, i8 0, i64 120, i1 false)
  %1 = load ptr, ptr %tok.addr, align 8
  %call1 = call ptr @declarator(ptr noundef %tok.addr, ptr noundef %1, ptr noundef %dummy)
  store ptr %call1, ptr %ty, align 8
  %2 = load ptr, ptr %ty, align 8
  %kind = getelementptr inbounds %struct.Type, ptr %2, i32 0, i32 0
  %3 = load i32, ptr %kind, align 8
  %cmp = icmp eq i32 %3, 11
  store i1 %cmp, ptr %retval, align 1
  br label %return

return:                                           ; preds = %if.end, %if.then
  %4 = load i1, ptr %retval, align 1
  ret i1 %4
}

; Function Attrs: nounwind uwtable
define internal zeroext i1 @is_typename(ptr noundef %tok) #0 {
entry:
  %tok.addr = alloca ptr, align 8
  %i = alloca i32, align 4
  store ptr %tok, ptr %tok.addr, align 8
  %0 = load i32, ptr getelementptr inbounds (%struct.HashMap, ptr @is_typename.map, i32 0, i32 1), align 8
  %cmp = icmp eq i32 %0, 0
  br i1 %cmp, label %if.then, label %if.end

if.then:                                          ; preds = %entry
  store i32 0, ptr %i, align 4
  br label %for.cond

for.cond:                                         ; preds = %for.inc, %if.then
  %1 = load i32, ptr %i, align 4
  %conv = sext i32 %1 to i64
  %cmp1 = icmp ult i64 %conv, 30
  br i1 %cmp1, label %for.body, label %for.end

for.body:                                         ; preds = %for.cond
  %2 = load i32, ptr %i, align 4
  %idxprom = sext i32 %2 to i64
  %arrayidx = getelementptr inbounds [30 x ptr], ptr @is_typename.kw, i64 0, i64 %idxprom
  %3 = load ptr, ptr %arrayidx, align 8
  call void @hashmap_put(ptr noundef @is_typename.map, ptr noundef %3, ptr noundef inttoptr (i64 1 to ptr))
  br label %for.inc

for.inc:                                          ; preds = %for.body
  %4 = load i32, ptr %i, align 4
  %inc = add nsw i32 %4, 1
  store i32 %inc, ptr %i, align 4
  br label %for.cond, !llvm.loop !21

for.end:                                          ; preds = %for.cond
  br label %if.end

if.end:                                           ; preds = %for.end, %entry
  %5 = load ptr, ptr %tok.addr, align 8
  %loc = getelementptr inbounds %struct.Token, ptr %5, i32 0, i32 4
  %6 = load ptr, ptr %loc, align 16
  %7 = load ptr, ptr %tok.addr, align 8
  %len = getelementptr inbounds %struct.Token, ptr %7, i32 0, i32 5
  %8 = load i32, ptr %len, align 8
  %call = call ptr @hashmap_get2(ptr noundef @is_typename.map, ptr noundef %6, i32 noundef %8)
  %tobool = icmp ne ptr %call, null
  br i1 %tobool, label %lor.end, label %lor.rhs

lor.rhs:                                          ; preds = %if.end
  %9 = load ptr, ptr %tok.addr, align 8
  %call3 = call ptr @find_typedef(ptr noundef %9)
  %tobool4 = icmp ne ptr %call3, null
  br label %lor.end

lor.end:                                          ; preds = %lor.rhs, %if.end
  %10 = phi i1 [ true, %if.end ], [ %tobool4, %lor.rhs ]
  ret i1 %10
}

; Function Attrs: nounwind uwtable
define internal void @enter_scope() #0 {
entry:
  %sc = alloca ptr, align 8
  %call = call noalias ptr @calloc(i64 noundef 1, i64 noundef 40) #8
  store ptr %call, ptr %sc, align 8
  %0 = load ptr, ptr @scope, align 8
  %1 = load ptr, ptr %sc, align 8
  %next = getelementptr inbounds %struct.Scope, ptr %1, i32 0, i32 0
  store ptr %0, ptr %next, align 8
  %2 = load ptr, ptr %sc, align 8
  store ptr %2, ptr @scope, align 8
  ret void
}

; Function Attrs: nounwind uwtable
define internal ptr @new_node(i32 noundef %kind, ptr noundef %tok) #0 {
entry:
  %kind.addr = alloca i32, align 4
  %tok.addr = alloca ptr, align 8
  %node = alloca ptr, align 8
  store i32 %kind, ptr %kind.addr, align 4
  store ptr %tok, ptr %tok.addr, align 8
  %call = call noalias ptr @calloc(i64 noundef 1, i64 noundef 288) #8
  store ptr %call, ptr %node, align 8
  %0 = load i32, ptr %kind.addr, align 4
  %1 = load ptr, ptr %node, align 8
  %kind1 = getelementptr inbounds %struct.Node, ptr %1, i32 0, i32 0
  store i32 %0, ptr %kind1, align 16
  %2 = load ptr, ptr %tok.addr, align 8
  %3 = load ptr, ptr %node, align 8
  %tok2 = getelementptr inbounds %struct.Node, ptr %3, i32 0, i32 3
  store ptr %2, ptr %tok2, align 8
  %4 = load ptr, ptr %node, align 8
  ret ptr %4
}

; Function Attrs: nounwind uwtable
define internal ptr @compound_stmt(ptr noundef %rest, ptr noundef %tok) #0 {
entry:
  %rest.addr = alloca ptr, align 8
  %tok.addr = alloca ptr, align 8
  %node = alloca ptr, align 8
  %head = alloca %struct.Node, align 16
  %cur = alloca ptr, align 8
  %attr = alloca %struct.VarAttr, align 4
  %basety = alloca ptr, align 8
  store ptr %rest, ptr %rest.addr, align 8
  store ptr %tok, ptr %tok.addr, align 8
  %0 = load ptr, ptr %tok.addr, align 8
  %call = call ptr @new_node(i32 noundef 32, ptr noundef %0)
  store ptr %call, ptr %node, align 8
  call void @llvm.memset.p0.i64(ptr align 16 %head, i8 0, i64 288, i1 false)
  store ptr %head, ptr %cur, align 8
  call void @enter_scope()
  br label %while.cond

while.cond:                                       ; preds = %if.end19, %if.then12, %if.then8, %if.then5, %entry
  %1 = load ptr, ptr %tok.addr, align 8
  %call1 = call zeroext i1 @equal(ptr noundef %1, ptr noundef @.str.69)
  %lnot = xor i1 %call1, true
  br i1 %lnot, label %while.body, label %while.end

while.body:                                       ; preds = %while.cond
  %2 = load ptr, ptr %tok.addr, align 8
  %call2 = call zeroext i1 @is_typename(ptr noundef %2)
  br i1 %call2, label %land.lhs.true, label %if.else

land.lhs.true:                                    ; preds = %while.body
  %3 = load ptr, ptr %tok.addr, align 8
  %next = getelementptr inbounds %struct.Token, ptr %3, i32 0, i32 1
  %4 = load ptr, ptr %next, align 8
  %call3 = call zeroext i1 @equal(ptr noundef %4, ptr noundef @.str.3)
  br i1 %call3, label %if.else, label %if.then

if.then:                                          ; preds = %land.lhs.true
  call void @llvm.memset.p0.i64(ptr align 4 %attr, i8 0, i64 12, i1 false)
  %5 = load ptr, ptr %tok.addr, align 8
  %call4 = call ptr @declspec(ptr noundef %tok.addr, ptr noundef %5, ptr noundef %attr)
  store ptr %call4, ptr %basety, align 8
  %is_typedef = getelementptr inbounds %struct.VarAttr, ptr %attr, i32 0, i32 0
  %6 = load i8, ptr %is_typedef, align 4
  %tobool = trunc i8 %6 to i1
  br i1 %tobool, label %if.then5, label %if.end

if.then5:                                         ; preds = %if.then
  %7 = load ptr, ptr %tok.addr, align 8
  %8 = load ptr, ptr %basety, align 8
  %call6 = call ptr @parse_typedef(ptr noundef %7, ptr noundef %8)
  store ptr %call6, ptr %tok.addr, align 8
  br label %while.cond, !llvm.loop !49

if.end:                                           ; preds = %if.then
  %9 = load ptr, ptr %tok.addr, align 8
  %call7 = call zeroext i1 @is_function(ptr noundef %9)
  br i1 %call7, label %if.then8, label %if.end10

if.then8:                                         ; preds = %if.end
  %10 = load ptr, ptr %tok.addr, align 8
  %11 = load ptr, ptr %basety, align 8
  %call9 = call ptr @function(ptr noundef %10, ptr noundef %11, ptr noundef %attr)
  store ptr %call9, ptr %tok.addr, align 8
  br label %while.cond, !llvm.loop !49

if.end10:                                         ; preds = %if.end
  %is_extern = getelementptr inbounds %struct.VarAttr, ptr %attr, i32 0, i32 2
  %12 = load i8, ptr %is_extern, align 2
  %tobool11 = trunc i8 %12 to i1
  br i1 %tobool11, label %if.then12, label %if.end14

if.then12:                                        ; preds = %if.end10
  %13 = load ptr, ptr %tok.addr, align 8
  %14 = load ptr, ptr %basety, align 8
  %call13 = call ptr @global_variable(ptr noundef %13, ptr noundef %14, ptr noundef %attr)
  store ptr %call13, ptr %tok.addr, align 8
  br label %while.cond, !llvm.loop !49

if.end14:                                         ; preds = %if.end10
  %15 = load ptr, ptr %tok.addr, align 8
  %16 = load ptr, ptr %basety, align 8
  %call15 = call ptr @declaration(ptr noundef %tok.addr, ptr noundef %15, ptr noundef %16, ptr noundef %attr)
  %17 = load ptr, ptr %cur, align 8
  %next16 = getelementptr inbounds %struct.Node, ptr %17, i32 0, i32 1
  store ptr %call15, ptr %next16, align 8
  store ptr %call15, ptr %cur, align 8
  br label %if.end19

if.else:                                          ; preds = %land.lhs.true, %while.body
  %18 = load ptr, ptr %tok.addr, align 8
  %call17 = call ptr @stmt(ptr noundef %tok.addr, ptr noundef %18)
  %19 = load ptr, ptr %cur, align 8
  %next18 = getelementptr inbounds %struct.Node, ptr %19, i32 0, i32 1
  store ptr %call17, ptr %next18, align 8
  store ptr %call17, ptr %cur, align 8
  br label %if.end19

if.end19:                                         ; preds = %if.else, %if.end14
  %20 = load ptr, ptr %cur, align 8
  call void @add_type(ptr noundef %20)
  br label %while.cond, !llvm.loop !49

while.end:                                        ; preds = %while.cond
  call void @leave_scope()
  %next20 = getelementptr inbounds %struct.Node, ptr %head, i32 0, i32 1
  %21 = load ptr, ptr %next20, align 8
  %22 = load ptr, ptr %node, align 8
  %body = getelementptr inbounds %struct.Node, ptr %22, i32 0, i32 13
  store ptr %21, ptr %body, align 8
  %23 = load ptr, ptr %tok.addr, align 8
  %next21 = getelementptr inbounds %struct.Token, ptr %23, i32 0, i32 1
  %24 = load ptr, ptr %next21, align 8
  %25 = load ptr, ptr %rest.addr, align 8
  store ptr %24, ptr %25, align 8
  %26 = load ptr, ptr %node, align 8
  ret ptr %26
}