; Function Attrs: nounwind uwtable
define internal fastcc noundef ptr @compound_stmt(ptr nocapture noundef writeonly %rest, ptr noundef %tok) unnamed_addr #0 {
entry:
  %tok.addr.i = alloca ptr, align 8
  %dummy.i = alloca %struct.Type, align 8
  %tok.addr = alloca ptr, align 8
  %head = alloca %struct.Node, align 16
  %attr = alloca %struct.VarAttr, align 4
  store ptr %tok, ptr %tok.addr, align 8
  %call.i = tail call noalias noundef dereferenceable_or_null(288) ptr @calloc(i64 noundef 1, i64 noundef 288) #14
  store i32 32, ptr %call.i, align 16
  %tok2.i = getelementptr inbounds %struct.Node, ptr %call.i, i64 0, i32 3
  store ptr %tok, ptr %tok2.i, align 8
  call void @llvm.memset.p0.i64(ptr noundef nonnull align 16 dereferenceable(288) %head, i8 0, i64 288, i1 false)
  %call.i7 = tail call noalias dereferenceable_or_null(40) ptr @calloc(i64 noundef 1, i64 noundef 40) #14
  %0 = load ptr, ptr @scope, align 8
  store ptr %0, ptr %call.i7, align 8
  store ptr %call.i7, ptr @scope, align 8
  %call11516 = tail call zeroext i1 @equal(ptr noundef %tok, ptr noundef nonnull @.str.69) #13
  br i1 %call11516, label %while.end, label %while.body.lr.ph.lr.ph

while.body.lr.ph.lr.ph:                           ; preds = %entry
  %is_extern = getelementptr inbounds %struct.VarAttr, ptr %attr, i64 0, i32 2
  br label %while.body.lr.ph

while.body.lr.ph:                                 ; preds = %while.body.lr.ph.lr.ph, %if.end19
  %cur.0.ph17 = phi ptr [ %head, %while.body.lr.ph.lr.ph ], [ %call17.sink, %if.end19 ]
  br label %while.body

while.body:                                       ; preds = %while.body.lr.ph, %while.cond.backedge
  %1 = load ptr, ptr %tok.addr, align 8
  %2 = load i32, ptr getelementptr inbounds (%struct.HashMap, ptr @is_typename.map, i64 0, i32 1), align 8
  %cmp.i = icmp eq i32 %2, 0
  br i1 %cmp.i, label %for.body.i, label %if.end.i

for.body.i:                                       ; preds = %while.body, %for.body.i
  %indvars.iv.i = phi i64 [ %indvars.iv.next.i, %for.body.i ], [ 0, %while.body ]
  %arrayidx.i = getelementptr inbounds [30 x ptr], ptr @is_typename.kw, i64 0, i64 %indvars.iv.i
  %3 = load ptr, ptr %arrayidx.i, align 8
  call void @hashmap_put(ptr noundef nonnull @is_typename.map, ptr noundef %3, ptr noundef nonnull inttoptr (i64 1 to ptr)) #13
  %indvars.iv.next.i = add nuw nsw i64 %indvars.iv.i, 1
  %exitcond.not.i = icmp eq i64 %indvars.iv.next.i, 30
  br i1 %exitcond.not.i, label %if.end.i, label %for.body.i, !llvm.loop !13

if.end.i:                                         ; preds = %for.body.i, %while.body
  %loc.i = getelementptr inbounds %struct.Token, ptr %1, i64 0, i32 4
  %4 = load ptr, ptr %loc.i, align 16
  %len.i = getelementptr inbounds %struct.Token, ptr %1, i64 0, i32 5
  %5 = load i32, ptr %len.i, align 8
  %call.i8 = call ptr @hashmap_get2(ptr noundef nonnull @is_typename.map, ptr noundef %4, i32 noundef %5) #13
  %tobool.not.i = icmp eq ptr %call.i8, null
  br i1 %tobool.not.i, label %lor.rhs.i, label %land.lhs.true

lor.rhs.i:                                        ; preds = %if.end.i
  %6 = load i32, ptr %1, align 16
  %cmp.i.i = icmp eq i32 %6, 0
  br i1 %cmp.i.i, label %for.cond.i.i.i, label %if.else

for.cond.i.i.i:                                   ; preds = %lor.rhs.i, %for.body.i.i.i
  %sc.0.in.i.i.i = phi ptr [ %sc.0.i.i.i, %for.body.i.i.i ], [ @scope, %lor.rhs.i ]
  %sc.0.i.i.i = load ptr, ptr %sc.0.in.i.i.i, align 8
  %tobool.not.i.i.i = icmp eq ptr %sc.0.i.i.i, null
  br i1 %tobool.not.i.i.i, label %if.else, label %for.body.i.i.i

for.body.i.i.i:                                   ; preds = %for.cond.i.i.i
  %vars.i.i.i = getelementptr inbounds %struct.Scope, ptr %sc.0.i.i.i, i64 0, i32 1
  %7 = load ptr, ptr %loc.i, align 16
  %8 = load i32, ptr %len.i, align 8
  %call.i.i.i = call ptr @hashmap_get2(ptr noundef nonnull %vars.i.i.i, ptr noundef %7, i32 noundef %8) #13
  %tobool1.not.i.i.i = icmp eq ptr %call.i.i.i, null
  br i1 %tobool1.not.i.i.i, label %for.cond.i.i.i, label %is_typename.exit, !llvm.loop !14

is_typename.exit:                                 ; preds = %for.body.i.i.i
  %type_def.i.i = getelementptr inbounds %struct.VarScope, ptr %call.i.i.i, i64 0, i32 1
  %9 = load ptr, ptr %type_def.i.i, align 8
  %.not = icmp eq ptr %9, null
  br i1 %.not, label %if.else, label %land.lhs.true

land.lhs.true:                                    ; preds = %if.end.i, %is_typename.exit
  %10 = load ptr, ptr %tok.addr, align 8
  %next = getelementptr inbounds %struct.Token, ptr %10, i64 0, i32 1
  %11 = load ptr, ptr %next, align 8
  %call3 = call zeroext i1 @equal(ptr noundef %11, ptr noundef nonnull @.str.3) #13
  br i1 %call3, label %if.else, label %if.then

if.then:                                          ; preds = %land.lhs.true
  call void @llvm.memset.p0.i64(ptr noundef nonnull align 4 dereferenceable(12) %attr, i8 0, i64 12, i1 false)
  %12 = load ptr, ptr %tok.addr, align 8
  %call4 = call fastcc ptr @declspec(ptr noundef nonnull %tok.addr, ptr noundef %12, ptr noundef nonnull %attr)
  %13 = load i8, ptr %attr, align 4
  %14 = and i8 %13, 1
  %tobool.not = icmp eq i8 %14, 0
  %15 = load ptr, ptr %tok.addr, align 8
  br i1 %tobool.not, label %if.end, label %if.then5

if.then5:                                         ; preds = %if.then
  %call6 = call fastcc ptr @parse_typedef(ptr noundef %15, ptr noundef %call4)
  store ptr %call6, ptr %tok.addr, align 8
  br label %while.cond.backedge

while.cond.backedge:                              ; preds = %if.then5, %if.then8, %if.then12
  %16 = phi ptr [ %call6, %if.then5 ], [ %call9, %if.then8 ], [ %call13, %if.then12 ]
  %call1 = call zeroext i1 @equal(ptr noundef %16, ptr noundef nonnull @.str.69) #13
  br i1 %call1, label %while.end, label %while.body, !llvm.loop !53

if.end:                                           ; preds = %if.then
  call void @llvm.lifetime.start.p0(i64 8, ptr nonnull %tok.addr.i)
  call void @llvm.lifetime.start.p0(i64 120, ptr nonnull %dummy.i)
  store ptr %15, ptr %tok.addr.i, align 8
  %call.i9 = call zeroext i1 @equal(ptr noundef %15, ptr noundef nonnull @.str.99) #13
  br i1 %call.i9, label %is_function.exit.thread, label %is_function.exit

is_function.exit.thread:                          ; preds = %if.end
  call void @llvm.lifetime.end.p0(i64 8, ptr nonnull %tok.addr.i)
  call void @llvm.lifetime.end.p0(i64 120, ptr nonnull %dummy.i)
  br label %if.end10

is_function.exit:                                 ; preds = %if.end
  call void @llvm.memset.p0.i64(ptr noundef nonnull align 8 dereferenceable(120) %dummy.i, i8 0, i64 120, i1 false)
  %17 = load ptr, ptr %tok.addr.i, align 8
  %call1.i = call fastcc ptr @declarator(ptr noundef nonnull %tok.addr.i, ptr noundef %17, ptr noundef nonnull %dummy.i)
  %18 = load i32, ptr %call1.i, align 8
  %cmp.i11 = icmp eq i32 %18, 11
  call void @llvm.lifetime.end.p0(i64 8, ptr nonnull %tok.addr.i)
  call void @llvm.lifetime.end.p0(i64 120, ptr nonnull %dummy.i)
  br i1 %cmp.i11, label %if.then8, label %if.end10

if.then8:                                         ; preds = %is_function.exit
  %19 = load ptr, ptr %tok.addr, align 8
  %call9 = call fastcc ptr @function(ptr noundef %19, ptr noundef %call4, ptr noundef nonnull %attr)
  store ptr %call9, ptr %tok.addr, align 8
  br label %while.cond.backedge

if.end10:                                         ; preds = %is_function.exit.thread, %is_function.exit
  %20 = load i8, ptr %is_extern, align 2
  %21 = and i8 %20, 1
  %tobool11.not = icmp eq i8 %21, 0
  %22 = load ptr, ptr %tok.addr, align 8
  br i1 %tobool11.not, label %if.end14, label %if.then12

if.then12:                                        ; preds = %if.end10
  %call13 = call fastcc ptr @global_variable(ptr noundef %22, ptr noundef %call4, ptr noundef nonnull %attr)
  store ptr %call13, ptr %tok.addr, align 8
  br label %while.cond.backedge

if.end14:                                         ; preds = %if.end10
  %call15 = call fastcc ptr @declaration(ptr noundef nonnull %tok.addr, ptr noundef %22, ptr noundef %call4, ptr noundef nonnull %attr)
  br label %if.end19

if.else:                                          ; preds = %lor.rhs.i, %land.lhs.true, %is_typename.exit, %for.cond.i.i.i
  %23 = load ptr, ptr %tok.addr, align 8
  %call17 = call fastcc ptr @stmt(ptr noundef nonnull %tok.addr, ptr noundef %23)
  br label %if.end19

if.end19:                                         ; preds = %if.else, %if.end14
  %call17.sink = phi ptr [ %call17, %if.else ], [ %call15, %if.end14 ]
  %next18 = getelementptr inbounds %struct.Node, ptr %cur.0.ph17, i64 0, i32 1
  store ptr %call17.sink, ptr %next18, align 8
  call void @add_type(ptr noundef %call17.sink) #13
  %24 = load ptr, ptr %tok.addr, align 8
  %call115 = call zeroext i1 @equal(ptr noundef %24, ptr noundef nonnull @.str.69) #13
  br i1 %call115, label %while.end, label %while.body.lr.ph, !llvm.loop !53

while.end:                                        ; preds = %if.end19, %while.cond.backedge, %entry
  %25 = load ptr, ptr @scope, align 8
  %26 = load ptr, ptr %25, align 8
  store ptr %26, ptr @scope, align 8
  %next20 = getelementptr inbounds %struct.Node, ptr %head, i64 0, i32 1
  %27 = load ptr, ptr %next20, align 8
  %body = getelementptr inbounds %struct.Node, ptr %call.i, i64 0, i32 13
  store ptr %27, ptr %body, align 8
  %28 = load ptr, ptr %tok.addr, align 8
  %next21 = getelementptr inbounds %struct.Token, ptr %28, i64 0, i32 1
  %29 = load ptr, ptr %next21, align 8
  store ptr %29, ptr %rest, align 8
  ret ptr %call.i
}